; Function Attrs: mustprogress uwtable
define void @_ZN6icu_7711ICU_Utility12appendToRuleERNS_13UnicodeStringERKS1_aaS2_(ptr noundef nonnull align 8 dereferenceable(64) %0, ptr noundef nonnull readonly align 8 captures(none) dereferenceable(64) %1, i8 noundef signext %2, i8 noundef signext %3, ptr noundef nonnull align 8 dereferenceable(64) %4) local_unnamed_addr #1 align 2 {
  %6 = getelementptr inbounds nuw i8, ptr %1, i64 8
  %7 = getelementptr inbounds nuw i8, ptr %1, i64 12
  %8 = load i16, ptr %6, align 8, !tbaa !21
  %9 = icmp slt i16 %8, 0
  %10 = ashr i16 %8, 5
  %11 = sext i16 %10 to i32
  %12 = load i32, ptr %7, align 4
  %13 = select i1 %9, i32 %12, i32 %11
  %14 = icmp sgt i32 %13, 0
  br i1 %14, label %_ZNK6icu_7713UnicodeStringixEi.exit.lr.ph, label %._crit_edge

_ZNK6icu_7713UnicodeStringixEi.exit.lr.ph:        ; preds = %5
  %15 = getelementptr inbounds nuw i8, ptr %1, i64 10
  %16 = getelementptr inbounds nuw i8, ptr %1, i64 24
  br label %_ZNK6icu_7713UnicodeStringixEi.exit

._crit_edge:                                      ; preds = %_ZNK6icu_7713UnicodeStringixEi.exit, %5
  ret void

_ZNK6icu_7713UnicodeStringixEi.exit:              ; preds = %_ZNK6icu_7713UnicodeStringixEi.exit.lr.ph, %_ZNK6icu_7713UnicodeStringixEi.exit
  %indvars.iv = phi i64 [ 0, %_ZNK6icu_7713UnicodeStringixEi.exit.lr.ph ], [ %indvars.iv.next, %_ZNK6icu_7713UnicodeStringixEi.exit ]
  %17 = phi i16 [ %8, %_ZNK6icu_7713UnicodeStringixEi.exit.lr.ph ], [ %24, %_ZNK6icu_7713UnicodeStringixEi.exit ]
  %18 = and i16 %17, 2
  %.not.i.i.i = icmp eq i16 %18, 0
  %19 = load ptr, ptr %16, align 8
  %20 = select i1 %.not.i.i.i, ptr %19, ptr %15
  %21 = getelementptr inbounds nuw i16, ptr %20, i64 %indvars.iv
  %22 = load i16, ptr %21, align 2, !tbaa !15
  %23 = zext i16 %22 to i32
  tail call void @_ZN6icu_7711ICU_Utility12appendToRuleERNS_13UnicodeStringEiaaS2_(ptr noundef nonnull align 8 dereferenceable(64) %0, i32 noundef %23, i8 noundef signext %2, i8 noundef signext %3, ptr noundef nonnull align 8 dereferenceable(64) %4)
  %indvars.iv.next = add nuw nsw i64 %indvars.iv, 1
  %24 = load i16, ptr %6, align 8, !tbaa !21
  %25 = icmp slt i16 %24, 0
  %26 = ashr i16 %24, 5
  %27 = sext i16 %26 to i32
  %28 = load i32, ptr %7, align 4
  %29 = select i1 %25, i32 %28, i32 %27
  %30 = sext i32 %29 to i64
  %31 = icmp slt i64 %indvars.iv.next, %30
  br i1 %31, label %_ZNK6icu_7713UnicodeStringixEi.exit, label %._crit_edge, !llvm.loop !29
}